; ModuleID = 'source-C-CXX/42/1528.c'
source_filename = "source-C-CXX/42/1528.c"
target datalayout = "e-m:e-p270:32:32-p271:32:32-p272:64:64-i64:64-f80:128-n8:16:32:64-S128"
target triple = "x86_64-pc-linux-gnu"

%struct._IO_FILE = type { i32, i8*, i8*, i8*, i8*, i8*, i8*, i8*, i8*, i8*, i8*, i8*, %struct._IO_marker*, %struct._IO_FILE*, i32, i32, i64, i16, i8, [1 x i8], i8*, i64, %struct._IO_codecvt*, %struct._IO_wide_data*, %struct._IO_FILE*, i8*, i64, i32, [20 x i8] }
%struct._IO_marker = type opaque
%struct._IO_codecvt = type opaque
%struct._IO_wide_data = type opaque

@.str = private unnamed_addr constant [3 x i8] c"%d\00", align 1
@.str.1 = private unnamed_addr constant [7 x i8] c"%d %d\0A\00", align 1
@stdin = external local_unnamed_addr global %struct._IO_FILE*, align 8

; Function Attrs: nofree nounwind sspstrong uwtable
define dso_local i32 @f(i32 %0) local_unnamed_addr #0 {
  %2 = sitofp i32 %0 to double
  %3 = tail call double @sqrt(double %2) #4
  %4 = fptosi double %3 to i32
  %5 = icmp slt i32 %4, 2
  br i1 %5, label %13, label %9

6:                                                ; preds = %9
  %7 = add nuw i32 %10, 1
  %8 = icmp eq i32 %10, %4
  br i1 %8, label %13, label %9, !llvm.loop !5

9:                                                ; preds = %1, %6
  %10 = phi i32 [ %7, %6 ], [ 2, %1 ]
  %11 = srem i32 %0, %10
  %12 = icmp eq i32 %11, 0
  br i1 %12, label %13, label %6

13:                                               ; preds = %9, %6, %1
  %14 = phi i32 [ 1, %1 ], [ 1, %6 ], [ 0, %9 ]
  ret i32 %14
}

; Function Attrs: argmemonly mustprogress nofree nosync nounwind willreturn
declare void @llvm.lifetime.start.p0i8(i64 immarg, i8* nocapture) #1

; Function Attrs: mustprogress nofree nounwind willreturn
declare double @sqrt(double) local_unnamed_addr #2

; Function Attrs: argmemonly mustprogress nofree nosync nounwind willreturn
declare void @llvm.lifetime.end.p0i8(i64 immarg, i8* nocapture) #1

; Function Attrs: nofree nounwind sspstrong uwtable
define dso_local i32 @main() local_unnamed_addr #0 {
  %1 = alloca i32, align 4
  %2 = bitcast i32* %1 to i8*
  call void @llvm.lifetime.start.p0i8(i64 4, i8* nonnull %2) #4
  %3 = call i32 (i8*, ...) @__isoc99_scanf(i8* getelementptr inbounds ([3 x i8], [3 x i8]* @.str, i64 0, i64 0), i32* nonnull %1)
  %4 = load i32, i32* %1, align 4, !tbaa !7
  %5 = icmp slt i32 %4, 6
  br i1 %5, label %42, label %6

6:                                                ; preds = %0, %37
  %7 = phi i32 [ %38, %37 ], [ 3, %0 ]
  %8 = sitofp i32 %7 to double
  %9 = call double @sqrt(double %8) #4
  %10 = fptosi double %9 to i32
  %11 = icmp slt i32 %10, 2
  br i1 %11, label %19, label %15

12:                                               ; preds = %15
  %13 = add nuw i32 %16, 1
  %14 = icmp eq i32 %16, %10
  br i1 %14, label %19, label %15, !llvm.loop !5

15:                                               ; preds = %6, %12
  %16 = phi i32 [ %13, %12 ], [ 2, %6 ]
  %17 = urem i32 %7, %16
  %18 = icmp eq i32 %17, 0
  br i1 %18, label %37, label %12

19:                                               ; preds = %12, %6
  %20 = load i32, i32* %1, align 4, !tbaa !7
  %21 = sub nsw i32 %20, %7
  %22 = sitofp i32 %21 to double
  %23 = call double @sqrt(double %22) #4
  %24 = fptosi double %23 to i32
  %25 = icmp slt i32 %24, 2
  br i1 %25, label %33, label %29

26:                                               ; preds = %29
  %27 = add nuw i32 %30, 1
  %28 = icmp eq i32 %30, %24
  br i1 %28, label %33, label %29, !llvm.loop !5

29:                                               ; preds = %19, %26
  %30 = phi i32 [ %27, %26 ], [ 2, %19 ]
  %31 = srem i32 %21, %30
  %32 = icmp eq i32 %31, 0
  br i1 %32, label %37, label %26

33:                                               ; preds = %26, %19
  %34 = load i32, i32* %1, align 4, !tbaa !7
  %35 = sub nsw i32 %34, %7
  %36 = call i32 (i8*, ...) @printf(i8* nonnull dereferenceable(1) getelementptr inbounds ([7 x i8], [7 x i8]* @.str.1, i64 0, i64 0), i32 %7, i32 %35)
  br label %37

37:                                               ; preds = %15, %29, %33
  %38 = add nuw nsw i32 %7, 1
  %39 = load i32, i32* %1, align 4, !tbaa !7
  %40 = sdiv i32 %39, 2
  %41 = icmp slt i32 %7, %40
  br i1 %41, label %6, label %42, !llvm.loop !11

42:                                               ; preds = %37, %0
  %43 = load %struct._IO_FILE*, %struct._IO_FILE** @stdin, align 8, !tbaa !12
  %44 = call i32 @getc(%struct._IO_FILE* %43) #4
  %45 = load %struct._IO_FILE*, %struct._IO_FILE** @stdin, align 8, !tbaa !12
  %46 = call i32 @getc(%struct._IO_FILE* %45) #4
  %47 = load %struct._IO_FILE*, %struct._IO_FILE** @stdin, align 8, !tbaa !12
  %48 = call i32 @getc(%struct._IO_FILE* %47) #4
  call void @llvm.lifetime.end.p0i8(i64 4, i8* nonnull %2) #4
  ret i32 0
}

; Function Attrs: nofree nounwind
declare noundef i32 @__isoc99_scanf(i8* nocapture noundef readonly, ...) local_unnamed_addr #3

; Function Attrs: nofree nounwind
declare noundef i32 @printf(i8* nocapture noundef readonly, ...) local_unnamed_addr #3

; Function Attrs: nofree nounwind
declare noundef i32 @getc(%struct._IO_FILE* nocapture noundef) local_unnamed_addr #3


!llvm.module.flags = !{!0, !1, !2, !3}
!llvm.ident = !{!4}

!0 = !{i32 1, !"wchar_size", i32 4}
!1 = !{i32 7, !"PIC Level", i32 2}
!2 = !{i32 7, !"PIE Level", i32 2}
!3 = !{i32 7, !"uwtable", i32 1}
!4 = !{!"clang version 13.0.0"}
!5 = distinct !{!5, !6}
!6 = !{!"llvm.loop.mustprogress"}
!7 = !{!8, !8, i64 0}
!8 = !{!"int", !9, i64 0}
!9 = !{!"omnipotent char", !10, i64 0}
!10 = !{!"Simple C/C++ TBAA"}
!11 = distinct !{!11, !6}
!12 = !{!13, !13, i64 0}
!13 = !{!"any pointer", !9, i64 0}
